target datalayout = "e-m:e-p270:32:32-p271:32:32-p272:64:64-i64:64-i128:128-f80:128-n8:16:32:64-S128"
target triple = "x86_64-unknown-linux-gnu"

%"class.icu_75::StandardPluralRanges" = type { %"class.icu_75::MaybeStackArray.0", i32, [4 x i8] }
%"class.icu_75::MaybeStackArray.0" = type <{ ptr, i32, i8, [3 x i8], [3 x %"struct.icu_75::StandardPluralRanges::StandardPluralRangeTriple"], [4 x i8] }>
%"struct.icu_75::StandardPluralRanges::StandardPluralRangeTriple" = type { i32, i32, i32 }

; Function Attrs: mustprogress nounwind uwtable
define linkonce_odr noundef nonnull align 4 dereferenceable(12) ptr @_ZN6icu_7515MaybeStackArrayINS_20StandardPluralRanges25StandardPluralRangeTripleELi3EEixEl(ptr noundef nonnull align 8 dereferenceable(52) %this, i64 noundef %i) #0 comdat align 2 {
entry:
  %this.addr = alloca ptr, align 8
  %i.addr = alloca i64, align 8
  store ptr %this, ptr %this.addr, align 8
  store i64 %i, ptr %i.addr, align 8
  %this1 = load ptr, ptr %this.addr, align 8
  %ptr = getelementptr inbounds %"class.icu_75::MaybeStackArray.0", ptr %this1, i32 0, i32 0
  %0 = load ptr, ptr %ptr, align 8
  %1 = load i64, ptr %i.addr, align 8
  %arrayidx = getelementptr inbounds %"struct.icu_75::StandardPluralRanges::StandardPluralRangeTriple", ptr %0, i64 %1
  ret ptr %arrayidx
}

; Function Attrs: mustprogress uwtable
define void @_ZN6icu_7520StandardPluralRanges14addPluralRangeENS_14StandardPlural4FormES2_S2_(ptr noundef nonnull align 8 dereferenceable(60) %this, i32 noundef %first, i32 noundef %second, i32 noundef %result) #1 align 2 {
entry:
  %this.addr = alloca ptr, align 8
  %first.addr = alloca i32, align 4
  %second.addr = alloca i32, align 4
  %result.addr = alloca i32, align 4
  %ref.tmp = alloca %"struct.icu_75::StandardPluralRanges::StandardPluralRangeTriple", align 4
  store ptr %this, ptr %this.addr, align 8
  store i32 %first, ptr %first.addr, align 4
  store i32 %second, ptr %second.addr, align 4
  store i32 %result, ptr %result.addr, align 4
  %this1 = load ptr, ptr %this.addr, align 8
  %first2 = getelementptr inbounds %"struct.icu_75::StandardPluralRanges::StandardPluralRangeTriple", ptr %ref.tmp, i32 0, i32 0
  %0 = load i32, ptr %first.addr, align 4
  store i32 %0, ptr %first2, align 4
  %second3 = getelementptr inbounds %"struct.icu_75::StandardPluralRanges::StandardPluralRangeTriple", ptr %ref.tmp, i32 0, i32 1
  %1 = load i32, ptr %second.addr, align 4
  store i32 %1, ptr %second3, align 4
  %result4 = getelementptr inbounds %"struct.icu_75::StandardPluralRanges::StandardPluralRangeTriple", ptr %ref.tmp, i32 0, i32 2
  %2 = load i32, ptr %result.addr, align 4
  store i32 %2, ptr %result4, align 4
  %fTriples = getelementptr inbounds %"class.icu_75::StandardPluralRanges", ptr %this1, i32 0, i32 0
  %fTriplesLen = getelementptr inbounds %"class.icu_75::StandardPluralRanges", ptr %this1, i32 0, i32 1
  %3 = load i32, ptr %fTriplesLen, align 8
  %conv = sext i32 %3 to i64
  %call = call noundef nonnull align 4 dereferenceable(12) ptr @_ZN6icu_7515MaybeStackArrayINS_20StandardPluralRanges25StandardPluralRangeTripleELi3EEixEl(ptr noundef nonnull align 8 dereferenceable(52) %fTriples, i64 noundef %conv)
  call void @llvm.memcpy.p0.p0.i64(ptr align 4 %call, ptr align 4 %ref.tmp, i64 12, i1 false)
  %fTriplesLen5 = getelementptr inbounds %"class.icu_75::StandardPluralRanges", ptr %this1, i32 0, i32 1
  %4 = load i32, ptr %fTriplesLen5, align 8
  %inc = add nsw i32 %4, 1
  store i32 %inc, ptr %fTriplesLen5, align 8
  ret void
}