; Function Attrs: mustprogress nofree norecurse nosync nounwind willreturn memory(write, argmem: readwrite, inaccessiblemem: none) uwtable
define void @_ZN6icu_7520StandardPluralRanges14addPluralRangeENS_14StandardPlural4FormES2_S2_(ptr nocapture noundef nonnull align 8 dereferenceable(60) %this, i32 noundef %first, i32 noundef %second, i32 noundef %result) local_unnamed_addr #7 align 2 {
entry:
  %fTriplesLen = getelementptr inbounds i8, ptr %this, i64 56
  %0 = load i32, ptr %fTriplesLen, align 8
  %conv = sext i32 %0 to i64
  %1 = load ptr, ptr %this, align 8
  %arrayidx.i = getelementptr inbounds %"struct.icu_75::StandardPluralRanges::StandardPluralRangeTriple", ptr %1, i64 %conv
  store i32 %first, ptr %arrayidx.i, align 4
  %ref.tmp.sroa.2.0.call.sroa_idx = getelementptr inbounds i8, ptr %arrayidx.i, i64 4
  store i32 %second, ptr %ref.tmp.sroa.2.0.call.sroa_idx, align 4
  %ref.tmp.sroa.3.0.call.sroa_idx = getelementptr inbounds i8, ptr %arrayidx.i, i64 8
  store i32 %result, ptr %ref.tmp.sroa.3.0.call.sroa_idx, align 4
  %2 = load i32, ptr %fTriplesLen, align 8
  %inc = add nsw i32 %2, 1
  store i32 %inc, ptr %fTriplesLen, align 8
  ret void
}